target datalayout = "e-m:e-p270:32:32-p271:32:32-p272:64:64-i64:64-i128:128-f80:128-n8:16:32:64-S128"
target triple = "x86_64-pc-linux-gnu"

; Function Attrs: inlinehint nounwind sspstrong willreturn memory(none) uwtable
define internal i32 @rb_islower(i32 noundef %0) #12 {
  %2 = alloca i32, align 4
  store i32 %0, ptr %2, align 4, !tbaa !21
  %3 = load i32, ptr %2, align 4, !tbaa !21
  %4 = icmp sle i32 97, %3
  br i1 %4, label %5, label %8

5:                                                ; preds = %1
  %6 = load i32, ptr %2, align 4, !tbaa !21
  %7 = icmp sle i32 %6, 122
  br label %8

8:                                                ; preds = %5, %1
  %9 = phi i1 [ false, %1 ], [ %7, %5 ]
  %10 = zext i1 %9 to i32
  ret i32 %10
}

; Function Attrs: inlinehint nounwind sspstrong willreturn memory(none) uwtable
define internal i32 @rb_isupper(i32 noundef %0) #12 {
  %2 = alloca i32, align 4
  store i32 %0, ptr %2, align 4, !tbaa !21
  %3 = load i32, ptr %2, align 4, !tbaa !21
  %4 = icmp sle i32 65, %3
  br i1 %4, label %5, label %8

5:                                                ; preds = %1
  %6 = load i32, ptr %2, align 4, !tbaa !21
  %7 = icmp sle i32 %6, 90
  br label %8

8:                                                ; preds = %5, %1
  %9 = phi i1 [ false, %1 ], [ %7, %5 ]
  %10 = zext i1 %9 to i32
  ret i32 %10
}

; Function Attrs: inlinehint nounwind sspstrong willreturn memory(none) uwtable
define internal i32 @rb_isalpha(i32 noundef %0) #12 {
  %2 = alloca i32, align 4
  store i32 %0, ptr %2, align 4, !tbaa !21
  %3 = load i32, ptr %2, align 4, !tbaa !21
  %4 = call i32 @rb_isupper(i32 noundef %3) #31
  %5 = icmp ne i32 %4, 0
  br i1 %5, label %10, label %6

6:                                                ; preds = %1
  %7 = load i32, ptr %2, align 4, !tbaa !21
  %8 = call i32 @rb_islower(i32 noundef %7) #31
  %9 = icmp ne i32 %8, 0
  br label %10

10:                                               ; preds = %6, %1
  %11 = phi i1 [ true, %1 ], [ %9, %6 ]
  %12 = zext i1 %11 to i32
  ret i32 %12
}

; Function Attrs: nounwind sspstrong uwtable
define internal i32 @has_magic(ptr noundef %0, ptr noundef %1, i32 noundef %2, ptr noundef %3) #0 {
  %5 = alloca i32, align 4
  %6 = alloca ptr, align 8
  %7 = alloca ptr, align 8
  %8 = alloca i32, align 4
  %9 = alloca ptr, align 8
  %10 = alloca i32, align 4
  %11 = alloca i32, align 4
  %12 = alloca i32, align 4
  %13 = alloca i8, align 1
  %14 = alloca i32, align 4
  store ptr %0, ptr %6, align 8, !tbaa !11
  store ptr %1, ptr %7, align 8, !tbaa !11
  store i32 %2, ptr %8, align 4, !tbaa !21
  store ptr %3, ptr %9, align 8, !tbaa !19
  call void @llvm.lifetime.start.p0(i64 4, ptr %10) #26
  %15 = load i32, ptr %8, align 4, !tbaa !21
  %16 = and i32 %15, 1
  %17 = icmp ne i32 %16, 0
  %18 = xor i1 %17, true
  %19 = zext i1 %18 to i32
  store i32 %19, ptr %10, align 4, !tbaa !21
  call void @llvm.lifetime.start.p0(i64 4, ptr %11) #26
  store i32 0, ptr %11, align 4, !tbaa !21
  call void @llvm.lifetime.start.p0(i64 4, ptr %12) #26
  store i32 0, ptr %12, align 4, !tbaa !21
  call void @llvm.lifetime.start.p0(i64 1, ptr %13) #26
  br label %20

20:                                               ; preds = %54, %45, %4
  %21 = load ptr, ptr %6, align 8, !tbaa !11
  %22 = load ptr, ptr %7, align 8, !tbaa !11
  %23 = icmp ult ptr %21, %22
  br i1 %23, label %24, label %30

24:                                               ; preds = %20
  %25 = load ptr, ptr %6, align 8, !tbaa !11
  %26 = getelementptr i8, ptr %25, i32 1
  store ptr %26, ptr %6, align 8, !tbaa !11
  %27 = load i8, ptr %25, align 1, !tbaa !26
  store i8 %27, ptr %13, align 1, !tbaa !26
  %28 = sext i8 %27 to i32
  %29 = icmp ne i32 %28, 0
  br label %30

30:                                               ; preds = %24, %20
  %31 = phi i1 [ false, %20 ], [ %29, %24 ]
  br i1 %31, label %32, label %64

32:                                               ; preds = %30
  %33 = load i8, ptr %13, align 1, !tbaa !26
  %34 = sext i8 %33 to i32
  switch i32 %34, label %47 [
    i32 123, label %35
    i32 42, label %36
    i32 63, label %36
    i32 91, label %36
    i32 92, label %37
  ]

35:                                               ; preds = %32
  store i32 2, ptr %5, align 4
  store i32 1, ptr %14, align 4
  br label %74

36:                                               ; preds = %32, %32, %32
  store i32 1, ptr %12, align 4, !tbaa !21
  br label %54

37:                                               ; preds = %32
  %38 = load i32, ptr %10, align 4, !tbaa !21
  %39 = icmp ne i32 %38, 0
  br i1 %39, label %40, label %46

40:                                               ; preds = %37
  %41 = load ptr, ptr %6, align 8, !tbaa !11
  %42 = getelementptr i8, ptr %41, i32 1
  store ptr %42, ptr %6, align 8, !tbaa !11
  %43 = load ptr, ptr %7, align 8, !tbaa !11
  %44 = icmp uge ptr %41, %43
  br i1 %44, label %45, label %46

45:                                               ; preds = %40
  br label %20, !llvm.loop !126

46:                                               ; preds = %40, %37
  br label %54

47:                                               ; preds = %32
  %48 = load i8, ptr %13, align 1, !tbaa !26
  %49 = sext i8 %48 to i32
  %50 = call i32 @rb_isalpha(i32 noundef %49) #31
  %51 = icmp ne i32 %50, 0
  br i1 %51, label %52, label %53

52:                                               ; preds = %47
  store i32 1, ptr %11, align 4, !tbaa !21
  br label %53

53:                                               ; preds = %52, %47
  br label %54

54:                                               ; preds = %53, %46, %36
  %55 = load ptr, ptr %6, align 8, !tbaa !11
  %56 = getelementptr i8, ptr %55, i64 -1
  %57 = load ptr, ptr %6, align 8, !tbaa !11
  %58 = getelementptr i8, ptr %57, i64 -1
  %59 = load ptr, ptr %7, align 8, !tbaa !11
  %60 = load ptr, ptr %9, align 8, !tbaa !19
  %61 = call i32 @rb_enc_mbclen(ptr noundef %58, ptr noundef %59, ptr noundef %60)
  %62 = sext i32 %61 to i64
  %63 = getelementptr i8, ptr %56, i64 %62
  store ptr %63, ptr %6, align 8, !tbaa !11
  br label %20, !llvm.loop !126

64:                                               ; preds = %30
  %65 = load i32, ptr %12, align 4, !tbaa !21
  %66 = icmp ne i32 %65, 0
  br i1 %66, label %67, label %68

67:                                               ; preds = %64
  br label %72

68:                                               ; preds = %64
  %69 = load i32, ptr %11, align 4, !tbaa !21
  %70 = icmp ne i32 %69, 0
  %71 = select i1 %70, i32 1, i32 0
  br label %72

72:                                               ; preds = %68, %67
  %73 = phi i32 [ 3, %67 ], [ %71, %68 ]
  store i32 %73, ptr %5, align 4
  store i32 1, ptr %14, align 4
  br label %74

74:                                               ; preds = %72, %35
  call void @llvm.lifetime.end.p0(i64 1, ptr %13) #26
  call void @llvm.lifetime.end.p0(i64 4, ptr %12) #26
  call void @llvm.lifetime.end.p0(i64 4, ptr %11) #26
  call void @llvm.lifetime.end.p0(i64 4, ptr %10) #26
  %75 = load i32, ptr %5, align 4
  ret i32 %75
}