; Function Attrs: nounwind sspstrong uwtable
define internal fastcc range(i32 0, 4) i32 @has_magic(ptr noundef %0, ptr noundef %1, i32 noundef %2, ptr noundef %3) unnamed_addr #0 {
  %5 = and i32 %2, 1
  %.not = icmp eq i32 %5, 0
  br i1 %.not, label %.outer.us, label %.split42

.outer.us:                                        ; preds = %4, %.loopexit27.split.us.us
  %.018.ph.us = phi ptr [ %11, %.loopexit27.split.us.us ], [ %0, %4 ]
  %.016.ph.us = phi i32 [ %.117.us, %.loopexit27.split.us.us ], [ 0, %4 ]
  %.015.ph.us = phi i32 [ %.1.us, %.loopexit27.split.us.us ], [ 0, %4 ]
  br label %12

.loopexit27.split.us.us:                          ; preds = %14, %14, %14, %16, %.split.us.us
  %6 = phi i64 [ 1, %.split.us.us ], [ 1, %14 ], [ 1, %14 ], [ 1, %14 ], [ 2, %16 ]
  %.117.us = phi i32 [ %spec.select.us, %.split.us.us ], [ %.016.ph.us, %16 ], [ %.016.ph.us, %14 ], [ %.016.ph.us, %14 ], [ %.016.ph.us, %14 ]
  %.1.us = phi i32 [ %.015.ph.us, %.split.us.us ], [ 1, %14 ], [ 1, %14 ], [ 1, %14 ], [ %.015.ph.us, %16 ]
  %7 = getelementptr i8, ptr %.018.us.us, i64 %6
  %8 = getelementptr i8, ptr %7, i64 -1
  %9 = tail call i32 @rb_enc_mbclen(ptr noundef %8, ptr noundef nonnull %1, ptr noundef %3) #22
  %10 = sext i32 %9 to i64
  %11 = getelementptr i8, ptr %8, i64 %10
  br label %.outer.us, !llvm.loop !176

12:                                               ; preds = %16, %.outer.us
  %.018.us.us = phi ptr [ %18, %16 ], [ %.018.ph.us, %.outer.us ]
  %13 = icmp ult ptr %.018.us.us, %1
  br i1 %13, label %14, label %.critedge

14:                                               ; preds = %12
  %15 = load i8, ptr %.018.us.us, align 1, !tbaa !19
  switch i8 %15, label %.split.us.us [
    i8 0, label %.critedge
    i8 123, label %.loopexit
    i8 42, label %.loopexit27.split.us.us
    i8 63, label %.loopexit27.split.us.us
    i8 91, label %.loopexit27.split.us.us
    i8 92, label %16
  ]

16:                                               ; preds = %14
  %17 = getelementptr i8, ptr %.018.us.us, i64 1
  %18 = getelementptr i8, ptr %.018.us.us, i64 2
  %.not25.us.us = icmp ult ptr %17, %1
  br i1 %.not25.us.us, label %.loopexit27.split.us.us, label %12, !llvm.loop !176

.split.us.us:                                     ; preds = %14
  %19 = and i8 %15, -33
  %20 = sext i8 %19 to i32
  %21 = add nsw i32 %20, -91
  %narrow.i.us = icmp ult i32 %21, -26
  %spec.select.us = select i1 %narrow.i.us, i32 %.016.ph.us, i32 1
  br label %.loopexit27.split.us.us

.split42:                                         ; preds = %4
  %22 = icmp ult ptr %0, %1
  br i1 %22, label %.lr.ph, label %.loopexit

.lr.ph:                                           ; preds = %.split42, %.outer
  %.015.ph47 = phi i32 [ %.1, %.outer ], [ 0, %.split42 ]
  %.016.ph46 = phi i32 [ %.117, %.outer ], [ 0, %.split42 ]
  %.018.ph45 = phi ptr [ %30, %.outer ], [ %0, %.split42 ]
  %23 = load i8, ptr %.018.ph45, align 1, !tbaa !19
  switch i8 %23, label %.split [
    i8 0, label %.critedge
    i8 123, label %.loopexit
    i8 42, label %.outer
    i8 63, label %.outer
    i8 91, label %.outer
    i8 92, label %24
  ]

24:                                               ; preds = %.lr.ph
  br label %.outer

.split:                                           ; preds = %.lr.ph
  %25 = and i8 %23, -33
  %26 = sext i8 %25 to i32
  %27 = add nsw i32 %26, -91
  %narrow.i = icmp ult i32 %27, -26
  %spec.select = select i1 %narrow.i, i32 %.016.ph46, i32 1
  br label %.outer

.outer:                                           ; preds = %.lr.ph, %.lr.ph, %.lr.ph, %24, %.split
  %.117 = phi i32 [ %spec.select, %.split ], [ %.016.ph46, %24 ], [ %.016.ph46, %.lr.ph ], [ %.016.ph46, %.lr.ph ], [ %.016.ph46, %.lr.ph ]
  %.1 = phi i32 [ %.015.ph47, %.split ], [ %.015.ph47, %24 ], [ 1, %.lr.ph ], [ 1, %.lr.ph ], [ 1, %.lr.ph ]
  %28 = tail call i32 @rb_enc_mbclen(ptr noundef nonnull %.018.ph45, ptr noundef nonnull %1, ptr noundef %3) #22
  %29 = sext i32 %28 to i64
  %30 = getelementptr i8, ptr %.018.ph45, i64 %29
  %31 = icmp ult ptr %30, %1
  br i1 %31, label %.lr.ph, label %.critedge, !llvm.loop !176

.critedge:                                        ; preds = %.lr.ph, %.outer, %14, %12
  %.us-phi = phi i32 [ %.016.ph.us, %12 ], [ %.016.ph.us, %14 ], [ %.016.ph46, %.lr.ph ], [ %.117, %.outer ]
  %.us-phi36 = phi i32 [ %.015.ph.us, %12 ], [ %.015.ph.us, %14 ], [ %.015.ph47, %.lr.ph ], [ %.1, %.outer ]
  %.us-phi36.fr = freeze i32 %.us-phi36
  %.not23 = icmp eq i32 %.us-phi36.fr, 0
  %.not24 = icmp ne i32 %.us-phi, 0
  %32 = zext i1 %.not24 to i32
  %spec.select76 = select i1 %.not23, i32 %32, i32 3
  br label %.loopexit

.loopexit:                                        ; preds = %.lr.ph, %14, %.critedge, %.split42
  %.0 = phi i32 [ 0, %.split42 ], [ %spec.select76, %.critedge ], [ 2, %14 ], [ 2, %.lr.ph ]
  ret i32 %.0
}